; Function Attrs: nounwind uwtable
define range(i32 -12, 1) i32 @ff_attach_decode_data(ptr noundef %0) local_unnamed_addr #0 {
  %2 = getelementptr inbounds nuw i8, ptr %0, i64 376
  tail call void @av_refstruct_unref(ptr noundef nonnull %2) #10
  %3 = tail call ptr @av_refstruct_alloc_ext_c(i64 noundef 40, i32 noundef 0, ptr null, ptr noundef nonnull @decode_data_free) #10
  %.not = icmp eq ptr %3, null
  br i1 %.not, label %5, label %4

4:                                                ; preds = %1
  store ptr %3, ptr %2, align 8, !tbaa !100
  br label %5

5:                                                ; preds = %1, %4
  %.0 = phi i32 [ 0, %4 ], [ -12, %1 ]
  ret i32 %.0
}